target datalayout = "e-m:e-p270:32:32-p271:32:32-p272:64:64-i64:64-i128:128-f80:128-n8:16:32:64-S128"
target triple = "x86_64-pc-linux-gnu"

%struct._packet_info = type { ptr, ptr, i32, i32, %struct.nstime_t, %struct.nstime_t, %struct.nstime_t, i8, ptr, ptr, ptr, ptr, %struct._address, %struct._address, %struct._address, %struct._address, %struct._address, %struct._address, i32, ptr, i8, [3 x i8], %struct.anon, i32, i32, i32, i32, ptr, i8, ptr, ptr, i16, i16, i32, i32, i16, i32, i32, ptr, ptr, ptr, i8, i8, i16, i16, i16, i32, i16, i16, ptr, ptr, ptr, ptr, ptr, i32, i32 }
%struct.nstime_t = type { i64, i32 }
%struct._address = type { i32, i32, ptr, ptr }
%struct.anon = type { i8, [3 x i8] }
%struct._proto_node = type { ptr, ptr, ptr, ptr, ptr, ptr, ptr }
%struct.field_info = type { ptr, i32, i32, i32, i32, i32, i32, ptr, ptr, ptr, i32, i32 }

@hf_rtp_hdr_ed137c_ft_climax_ddc_mam = internal global i32 0, align 4
@hf_rtp_hdr_ed137c_ft_climax_ddc_mam_tqg = internal global i32 0, align 4
@hf_rtp_hdr_ed137c_ft_climax_ddc_mam_t1 = internal global i32 0, align 4
@hf_rtp_hdr_ed137c_ft_climax_ddc_mam_nmr = internal global i32 0, align 4
@hf_rtp_hdr_ed137c_ft_climax_ddc_mam_t2 = internal global i32 0, align 4
@hf_rtp_hdr_ed137c_ft_climax_ddc_mam_tsd = internal global i32 0, align 4
@hf_rtp_hdr_ed137c_ft_climax_ddc_mam_tj1 = internal global i32 0, align 4
@hf_rtp_hdr_ed137c_ft_climax_ddc_mam_tid = internal global i32 0, align 4
@hf_rtp_hdr_ed137c_ft_climax_ddc_mam_ts2 = internal global i32 0, align 4
@.str.239 = private unnamed_addr constant [5 x i8] c"%s s\00", align 1
@.str.243 = private unnamed_addr constant [6 x i8] c", NMR\00", align 1
@.str.244 = private unnamed_addr constant [6 x i8] c"%d us\00", align 1

; Function Attrs: null_pointer_is_valid sspstrong uwtable
define internal void @process_125us_based_value(ptr noundef %0, ptr noundef %1, i32 noundef %2, i32 noundef %3) #0 {
  %5 = alloca ptr, align 8
  %6 = alloca ptr, align 8
  %7 = alloca i32, align 4
  %8 = alloca i32, align 4
  %9 = alloca i32, align 4
  %10 = alloca i32, align 4
  store ptr %0, ptr %5, align 8
  store ptr %1, ptr %6, align 8
  store i32 %2, ptr %7, align 4
  store i32 %3, ptr %8, align 4
  call void @llvm.lifetime.start.p0(i64 4, ptr %9) #7
  call void @llvm.lifetime.start.p0(i64 4, ptr %10) #7
  %11 = load ptr, ptr %5, align 8
  %12 = load i32, ptr %8, align 4
  %13 = call zeroext i16 @tvb_get_ntohs(ptr noundef %11, i32 noundef %12)
  %14 = zext i16 %13 to i32
  store i32 %14, ptr %9, align 4
  %15 = load i32, ptr %9, align 4
  %16 = mul i32 %15, 125
  store i32 %16, ptr %10, align 4
  %17 = load ptr, ptr %6, align 8
  %18 = load i32, ptr %7, align 4
  %19 = load ptr, ptr %5, align 8
  %20 = load i32, ptr %8, align 4
  %21 = load i32, ptr %9, align 4
  %22 = load i32, ptr %10, align 4
  %23 = call ptr (ptr, i32, ptr, i32, i32, i32, ptr, ...) @proto_tree_add_uint_format_value(ptr noundef %17, i32 noundef %18, ptr noundef %19, i32 noundef %20, i32 noundef 2, i32 noundef %21, ptr noundef @.str.244, i32 noundef %22)
  call void @llvm.lifetime.end.p0(i64 4, ptr %10) #7
  call void @llvm.lifetime.end.p0(i64 4, ptr %9) #7
  ret void
}

; Function Attrs: null_pointer_is_valid sspstrong uwtable
define internal void @process_time_value(ptr noundef %0, ptr noundef %1, ptr noundef %2, i32 noundef %3, i32 noundef %4, i1 noundef zeroext %5, i32 noundef %6) #0 {
  %8 = alloca ptr, align 8
  %9 = alloca ptr, align 8
  %10 = alloca ptr, align 8
  %11 = alloca i32, align 4
  %12 = alloca i32, align 4
  %13 = alloca i8, align 1
  %14 = alloca i32, align 4
  %15 = alloca i32, align 4
  %16 = alloca %struct.nstime_t, align 8
  %17 = alloca ptr, align 8
  store ptr %0, ptr %8, align 8
  store ptr %1, ptr %9, align 8
  store ptr %2, ptr %10, align 8
  store i32 %3, ptr %11, align 4
  store i32 %4, ptr %12, align 4
  %18 = zext i1 %5 to i8
  store i8 %18, ptr %13, align 1
  store i32 %6, ptr %14, align 4
  call void @llvm.lifetime.start.p0(i64 4, ptr %15) #7
  call void @llvm.lifetime.start.p0(i64 16, ptr %16) #7
  call void @llvm.lifetime.start.p0(i64 8, ptr %17) #7
  %19 = load i32, ptr %14, align 4
  %20 = mul i32 %19, 125
  store i32 %20, ptr %15, align 4
  %21 = load i32, ptr %15, align 4
  %22 = udiv i32 %21, 1000000
  %23 = zext i32 %22 to i64
  %24 = getelementptr inbounds nuw %struct.nstime_t, ptr %16, i32 0, i32 0
  store i64 %23, ptr %24, align 8
  %25 = load i32, ptr %15, align 4
  %26 = urem i32 %25, 1000000
  %27 = mul i32 %26, 1000
  %28 = getelementptr inbounds nuw %struct.nstime_t, ptr %16, i32 0, i32 1
  store i32 %27, ptr %28, align 8
  %29 = load ptr, ptr %8, align 8
  %30 = getelementptr inbounds nuw %struct._packet_info, ptr %29, i32 0, i32 51
  %31 = load ptr, ptr %30, align 8
  %32 = call ptr @rel_time_to_secs_str(ptr noundef %31, ptr noundef %16)
  store ptr %32, ptr %17, align 8
  %33 = load ptr, ptr %10, align 8
  %34 = load i32, ptr %11, align 4
  %35 = load ptr, ptr %9, align 8
  %36 = load i32, ptr %12, align 4
  %37 = load i32, ptr %14, align 4
  %38 = load ptr, ptr %17, align 8
  %39 = call ptr (ptr, i32, ptr, i32, i32, i32, ptr, ...) @proto_tree_add_uint_format_value(ptr noundef %33, i32 noundef %34, ptr noundef %35, i32 noundef %36, i32 noundef 3, i32 noundef %37, ptr noundef @.str.239, ptr noundef %38)
  call void @llvm.lifetime.end.p0(i64 8, ptr %17) #7
  call void @llvm.lifetime.end.p0(i64 16, ptr %16) #7
  call void @llvm.lifetime.end.p0(i64 4, ptr %15) #7
  ret void
}

; Function Attrs: inlinehint nounwind null_pointer_is_valid sspstrong uwtable
define internal void @proto_item_set_generated(ptr noundef %0) #3 {
  %2 = alloca ptr, align 8
  store ptr %0, ptr %2, align 8
  %3 = load ptr, ptr %2, align 8
  %4 = icmp ne ptr %3, null
  br i1 %4, label %5, label %24

5:                                                ; preds = %1
  br label %6

6:                                                ; preds = %5
  %7 = load ptr, ptr %2, align 8
  %8 = getelementptr inbounds nuw %struct._proto_node, ptr %7, i32 0, i32 5
  %9 = load ptr, ptr %8, align 8
  %10 = icmp ne ptr %9, null
  br i1 %10, label %11, label %22

11:                                               ; preds = %6
  %12 = load ptr, ptr %2, align 8
  %13 = getelementptr inbounds nuw %struct._proto_node, ptr %12, i32 0, i32 5
  %14 = load ptr, ptr %13, align 8
  %15 = getelementptr inbounds nuw %struct.field_info, ptr %14, i32 0, i32 6
  %16 = load i32, ptr %15, align 4
  %17 = or i32 %16, 2
  %18 = load ptr, ptr %2, align 8
  %19 = getelementptr inbounds nuw %struct._proto_node, ptr %18, i32 0, i32 5
  %20 = load ptr, ptr %19, align 8
  %21 = getelementptr inbounds nuw %struct.field_info, ptr %20, i32 0, i32 6
  store i32 %17, ptr %21, align 4
  br label %22

22:                                               ; preds = %11, %6
  br label %23

23:                                               ; preds = %22
  br label %24

24:                                               ; preds = %23, %1
  ret void
}

; Function Attrs: null_pointer_is_valid sspstrong uwtable
define internal i32 @dissect_rtp_hdr_ext_ed137c_feature_climax_ddc_mam(ptr noundef %0, ptr noundef %1, ptr noundef %2, ptr noundef %3) #0 {
  %5 = alloca ptr, align 8
  %6 = alloca ptr, align 8
  %7 = alloca ptr, align 8
  %8 = alloca ptr, align 8
  %9 = alloca i32, align 4
  %10 = alloca ptr, align 8
  %11 = alloca i32, align 4
  %12 = alloca i32, align 4
  %13 = alloca i32, align 4
  store ptr %0, ptr %5, align 8
  store ptr %1, ptr %6, align 8
  store ptr %2, ptr %7, align 8
  store ptr %3, ptr %8, align 8
  call void @llvm.lifetime.start.p0(i64 4, ptr %9) #7
  call void @llvm.lifetime.start.p0(i64 8, ptr %10) #7
  call void @llvm.lifetime.start.p0(i64 4, ptr %11) #7
  call void @llvm.lifetime.start.p0(i64 4, ptr %12) #7
  call void @llvm.lifetime.start.p0(i64 4, ptr %13) #7
  %14 = load ptr, ptr %7, align 8
  %15 = load i32, ptr @hf_rtp_hdr_ed137c_ft_climax_ddc_mam, align 4
  %16 = load ptr, ptr %5, align 8
  %17 = call ptr @proto_tree_add_item(ptr noundef %14, i32 noundef %15, ptr noundef %16, i32 noundef -1, i32 noundef 1, i32 noundef 0)
  store ptr %17, ptr %10, align 8
  %18 = load ptr, ptr %10, align 8
  call void @proto_item_set_generated(ptr noundef %18)
  %19 = load ptr, ptr %5, align 8
  %20 = call i32 @tvb_get_ntoh24(ptr noundef %19, i32 noundef 0)
  store i32 %20, ptr %9, align 4
  %21 = load i32, ptr %9, align 4
  %22 = and i32 %21, 8388608
  %23 = lshr i32 %22, 23
  store i32 %23, ptr %11, align 4
  %24 = load i32, ptr %9, align 4
  %25 = and i32 %24, 8388607
  %26 = lshr i32 %25, 0
  store i32 %26, ptr %12, align 4
  %27 = load ptr, ptr %7, align 8
  %28 = load i32, ptr @hf_rtp_hdr_ed137c_ft_climax_ddc_mam_tqg, align 4
  %29 = load ptr, ptr %5, align 8
  %30 = call ptr @proto_tree_add_item(ptr noundef %27, i32 noundef %28, ptr noundef %29, i32 noundef 0, i32 noundef 3, i32 noundef 0)
  %31 = load ptr, ptr %6, align 8
  %32 = load ptr, ptr %5, align 8
  %33 = load ptr, ptr %7, align 8
  %34 = load i32, ptr @hf_rtp_hdr_ed137c_ft_climax_ddc_mam_t1, align 4
  %35 = load i32, ptr %11, align 4
  %36 = icmp eq i32 0, %35
  %37 = load i32, ptr %12, align 4
  call void @process_time_value(ptr noundef %31, ptr noundef %32, ptr noundef %33, i32 noundef %34, i32 noundef 0, i1 noundef zeroext %36, i32 noundef %37)
  %38 = load ptr, ptr %5, align 8
  %39 = call i32 @tvb_get_ntoh24(ptr noundef %38, i32 noundef 3)
  store i32 %39, ptr %9, align 4
  %40 = load i32, ptr %9, align 4
  %41 = and i32 %40, 8388607
  %42 = lshr i32 %41, 0
  store i32 %42, ptr %13, align 4
  %43 = load i32, ptr %9, align 4
  %44 = and i32 %43, 8388608
  %45 = lshr i32 %44, 23
  %46 = icmp ne i32 %45, 0
  br i1 %46, label %47, label %51

47:                                               ; preds = %4
  %48 = load ptr, ptr %6, align 8
  %49 = getelementptr inbounds nuw %struct._packet_info, ptr %48, i32 0, i32 1
  %50 = load ptr, ptr %49, align 8
  call void @col_append_str(ptr noundef %50, i32 noundef 25, ptr noundef @.str.243)
  br label %51

51:                                               ; preds = %47, %4
  %52 = load ptr, ptr %7, align 8
  %53 = load i32, ptr @hf_rtp_hdr_ed137c_ft_climax_ddc_mam_nmr, align 4
  %54 = load ptr, ptr %5, align 8
  %55 = call ptr @proto_tree_add_item(ptr noundef %52, i32 noundef %53, ptr noundef %54, i32 noundef 3, i32 noundef 3, i32 noundef 0)
  %56 = load ptr, ptr %6, align 8
  %57 = load ptr, ptr %5, align 8
  %58 = load ptr, ptr %7, align 8
  %59 = load i32, ptr @hf_rtp_hdr_ed137c_ft_climax_ddc_mam_t2, align 4
  %60 = load i32, ptr %11, align 4
  %61 = icmp eq i32 0, %60
  %62 = load i32, ptr %13, align 4
  call void @process_time_value(ptr noundef %56, ptr noundef %57, ptr noundef %58, i32 noundef %59, i32 noundef 3, i1 noundef zeroext %61, i32 noundef %62)
  %63 = load ptr, ptr %5, align 8
  %64 = load ptr, ptr %7, align 8
  %65 = load i32, ptr @hf_rtp_hdr_ed137c_ft_climax_ddc_mam_tsd, align 4
  call void @process_125us_based_value(ptr noundef %63, ptr noundef %64, i32 noundef %65, i32 noundef 6)
  %66 = load ptr, ptr %5, align 8
  %67 = load ptr, ptr %7, align 8
  %68 = load i32, ptr @hf_rtp_hdr_ed137c_ft_climax_ddc_mam_tj1, align 4
  call void @process_125us_based_value(ptr noundef %66, ptr noundef %67, i32 noundef %68, i32 noundef 8)
  %69 = load ptr, ptr %5, align 8
  %70 = load ptr, ptr %7, align 8
  %71 = load i32, ptr @hf_rtp_hdr_ed137c_ft_climax_ddc_mam_tid, align 4
  call void @process_125us_based_value(ptr noundef %69, ptr noundef %70, i32 noundef %71, i32 noundef 10)
  %72 = load ptr, ptr %5, align 8
  %73 = load ptr, ptr %7, align 8
  %74 = load i32, ptr @hf_rtp_hdr_ed137c_ft_climax_ddc_mam_ts2, align 4
  call void @process_125us_based_value(ptr noundef %72, ptr noundef %73, i32 noundef %74, i32 noundef 12)
  %75 = load i32, ptr %13, align 4
  %76 = load i32, ptr %12, align 4
  %77 = icmp ult i32 %75, %76
  br i1 %77, label %78, label %81

78:                                               ; preds = %51
  %79 = load i32, ptr %13, align 4
  %80 = add i32 %79, 8388608
  store i32 %80, ptr %13, align 4
  br label %81

81:                                               ; preds = %78, %51
  %82 = load ptr, ptr %6, align 8
  %83 = load ptr, ptr %7, align 8
  %84 = load i32, ptr %11, align 4
  %85 = trunc i32 %84 to i8
  %86 = load i32, ptr %13, align 4
  %87 = load i32, ptr %12, align 4
  %88 = sub i32 %86, %87
  %89 = load ptr, ptr %5, align 8
  %90 = call zeroext i16 @tvb_get_ntohs(ptr noundef %89, i32 noundef 6)
  %91 = zext i16 %90 to i32
  %92 = load ptr, ptr %5, align 8
  %93 = call zeroext i16 @tvb_get_ntohs(ptr noundef %92, i32 noundef 8)
  %94 = zext i16 %93 to i32
  %95 = load ptr, ptr %5, align 8
  %96 = call zeroext i16 @tvb_get_ntohs(ptr noundef %95, i32 noundef 10)
  %97 = zext i16 %96 to i32
  %98 = add i32 %94, %97
  %99 = call ptr @transaction_end(ptr noundef %82, ptr noundef %83, ptr noundef %12, i8 noundef zeroext %85, i32 noundef %88, i32 noundef %91, i32 noundef %98)
  %100 = load ptr, ptr %5, align 8
  %101 = call i32 @tvb_captured_length(ptr noundef %100)
  call void @llvm.lifetime.end.p0(i64 4, ptr %13) #7
  call void @llvm.lifetime.end.p0(i64 4, ptr %12) #7
  call void @llvm.lifetime.end.p0(i64 4, ptr %11) #7
  call void @llvm.lifetime.end.p0(i64 8, ptr %10) #7
  call void @llvm.lifetime.end.p0(i64 4, ptr %9) #7
  ret i32 %101
}