; Function Attrs: null_pointer_is_valid sspstrong uwtable
define internal i32 @dissect_rtp_hdr_ext_ed137c_feature_climax_ddc_mam(ptr noundef %0, ptr noundef %1, ptr noundef %2, ptr readnone captures(none) %3) #0 {
  %5 = alloca %struct.nstime_t, align 8
  %6 = alloca %struct.nstime_t, align 8
  %7 = alloca i32, align 4
  call void @llvm.lifetime.start.p0(i64 4, ptr nonnull %7) #6
  %8 = load i32, ptr @hf_rtp_hdr_ed137c_ft_climax_ddc_mam, align 4
  %9 = tail call ptr @proto_tree_add_item(ptr noundef %2, i32 noundef %8, ptr noundef %0, i32 noundef -1, i32 noundef 1, i32 noundef 0)
  %.not.i = icmp eq ptr %9, null
  br i1 %.not.i, label %proto_item_set_generated.exit, label %10

10:                                               ; preds = %4
  %11 = getelementptr inbounds nuw i8, ptr %9, i64 40
  %12 = load ptr, ptr %11, align 8
  %.not5.i = icmp eq ptr %12, null
  br i1 %.not5.i, label %proto_item_set_generated.exit, label %13

13:                                               ; preds = %10
  %14 = getelementptr inbounds nuw i8, ptr %12, i64 28
  %15 = load i32, ptr %14, align 4
  %16 = or i32 %15, 2
  store i32 %16, ptr %14, align 4
  br label %proto_item_set_generated.exit

proto_item_set_generated.exit:                    ; preds = %4, %10, %13
  %17 = tail call i32 @tvb_get_ntoh24(ptr noundef %0, i32 noundef 0)
  %18 = and i32 %17, 8388607
  store i32 %18, ptr %7, align 4
  %19 = load i32, ptr @hf_rtp_hdr_ed137c_ft_climax_ddc_mam_tqg, align 4
  %20 = tail call ptr @proto_tree_add_item(ptr noundef %2, i32 noundef %19, ptr noundef %0, i32 noundef 0, i32 noundef 3, i32 noundef 0)
  %21 = load i32, ptr @hf_rtp_hdr_ed137c_ft_climax_ddc_mam_t1, align 4
  %22 = getelementptr i8, ptr %1, i64 408
  %.val = load ptr, ptr %22, align 8
  call void @llvm.lifetime.start.p0(i64 16, ptr nonnull %6) #6
  %23 = mul nuw nsw i32 %18, 125
  %24 = udiv i32 %18, 8000
  %25 = zext nneg i32 %24 to i64
  store i64 %25, ptr %6, align 8
  %26 = urem i32 %23, 1000000
  %27 = mul nuw nsw i32 %26, 1000
  %28 = getelementptr inbounds nuw i8, ptr %6, i64 8
  store i32 %27, ptr %28, align 8
  %29 = call ptr @rel_time_to_secs_str(ptr noundef %.val, ptr noundef nonnull %6)
  %30 = call ptr (ptr, i32, ptr, i32, i32, i32, ptr, ...) @proto_tree_add_uint_format_value(ptr noundef %2, i32 noundef %21, ptr noundef %0, i32 noundef 0, i32 noundef 3, i32 noundef %18, ptr noundef nonnull @.str.239, ptr noundef %29)
  call void @llvm.lifetime.end.p0(i64 16, ptr nonnull %6) #6
  %31 = call i32 @tvb_get_ntoh24(ptr noundef %0, i32 noundef 3)
  %32 = and i32 %31, 8388608
  %.not = icmp eq i32 %32, 0
  br i1 %.not, label %36, label %33

33:                                               ; preds = %proto_item_set_generated.exit
  %34 = getelementptr inbounds nuw i8, ptr %1, i64 8
  %35 = load ptr, ptr %34, align 8
  call void @col_append_str(ptr noundef %35, i32 noundef 25, ptr noundef nonnull @.str.243)
  br label %36

36:                                               ; preds = %33, %proto_item_set_generated.exit
  %37 = and i32 %31, 8388607
  %38 = lshr i32 %17, 23
  %39 = load i32, ptr @hf_rtp_hdr_ed137c_ft_climax_ddc_mam_nmr, align 4
  %40 = call ptr @proto_tree_add_item(ptr noundef %2, i32 noundef %39, ptr noundef %0, i32 noundef 3, i32 noundef 3, i32 noundef 0)
  %41 = load i32, ptr @hf_rtp_hdr_ed137c_ft_climax_ddc_mam_t2, align 4
  %.val41 = load ptr, ptr %22, align 8
  call void @llvm.lifetime.start.p0(i64 16, ptr nonnull %5) #6
  %42 = mul nuw nsw i32 %37, 125
  %43 = udiv i32 %37, 8000
  %44 = zext nneg i32 %43 to i64
  store i64 %44, ptr %5, align 8
  %45 = urem i32 %42, 1000000
  %46 = mul nuw nsw i32 %45, 1000
  %47 = getelementptr inbounds nuw i8, ptr %5, i64 8
  store i32 %46, ptr %47, align 8
  %48 = call ptr @rel_time_to_secs_str(ptr noundef %.val41, ptr noundef nonnull %5)
  %49 = call ptr (ptr, i32, ptr, i32, i32, i32, ptr, ...) @proto_tree_add_uint_format_value(ptr noundef %2, i32 noundef %41, ptr noundef %0, i32 noundef 3, i32 noundef 3, i32 noundef %37, ptr noundef nonnull @.str.239, ptr noundef %48)
  call void @llvm.lifetime.end.p0(i64 16, ptr nonnull %5) #6
  %50 = load i32, ptr @hf_rtp_hdr_ed137c_ft_climax_ddc_mam_tsd, align 4
  %51 = call zeroext i16 @tvb_get_ntohs(ptr noundef %0, i32 noundef 6)
  %52 = zext i16 %51 to i32
  %53 = mul nuw nsw i32 %52, 125
  %54 = call ptr (ptr, i32, ptr, i32, i32, i32, ptr, ...) @proto_tree_add_uint_format_value(ptr noundef %2, i32 noundef %50, ptr noundef %0, i32 noundef 6, i32 noundef 2, i32 noundef %52, ptr noundef nonnull @.str.244, i32 noundef %53)
  %55 = load i32, ptr @hf_rtp_hdr_ed137c_ft_climax_ddc_mam_tj1, align 4
  %56 = call zeroext i16 @tvb_get_ntohs(ptr noundef %0, i32 noundef 8)
  %57 = zext i16 %56 to i32
  %58 = mul nuw nsw i32 %57, 125
  %59 = call ptr (ptr, i32, ptr, i32, i32, i32, ptr, ...) @proto_tree_add_uint_format_value(ptr noundef %2, i32 noundef %55, ptr noundef %0, i32 noundef 8, i32 noundef 2, i32 noundef %57, ptr noundef nonnull @.str.244, i32 noundef %58)
  %60 = load i32, ptr @hf_rtp_hdr_ed137c_ft_climax_ddc_mam_tid, align 4
  %61 = call zeroext i16 @tvb_get_ntohs(ptr noundef %0, i32 noundef 10)
  %62 = zext i16 %61 to i32
  %63 = mul nuw nsw i32 %62, 125
  %64 = call ptr (ptr, i32, ptr, i32, i32, i32, ptr, ...) @proto_tree_add_uint_format_value(ptr noundef %2, i32 noundef %60, ptr noundef %0, i32 noundef 10, i32 noundef 2, i32 noundef %62, ptr noundef nonnull @.str.244, i32 noundef %63)
  %65 = load i32, ptr @hf_rtp_hdr_ed137c_ft_climax_ddc_mam_ts2, align 4
  %66 = call zeroext i16 @tvb_get_ntohs(ptr noundef %0, i32 noundef 12)
  %67 = zext i16 %66 to i32
  %68 = mul nuw nsw i32 %67, 125
  %69 = call ptr (ptr, i32, ptr, i32, i32, i32, ptr, ...) @proto_tree_add_uint_format_value(ptr noundef %2, i32 noundef %65, ptr noundef %0, i32 noundef 12, i32 noundef 2, i32 noundef %67, ptr noundef nonnull @.str.244, i32 noundef %68)
  %70 = icmp samesign ult i32 %37, %18
  %71 = or disjoint i32 %37, 8388608
  %spec.select = select i1 %70, i32 %71, i32 %37
  %72 = trunc i32 %38 to i8
  %73 = and i8 %72, 1
  %74 = sub nsw i32 %spec.select, %18
  %75 = call zeroext i16 @tvb_get_ntohs(ptr noundef %0, i32 noundef 6)
  %76 = zext i16 %75 to i32
  %77 = call zeroext i16 @tvb_get_ntohs(ptr noundef %0, i32 noundef 8)
  %78 = zext i16 %77 to i32
  %79 = call zeroext i16 @tvb_get_ntohs(ptr noundef %0, i32 noundef 10)
  %80 = zext i16 %79 to i32
  %81 = add nuw nsw i32 %80, %78
  call fastcc void @transaction_end(ptr noundef %1, ptr noundef %2, ptr noundef nonnull %7, i8 noundef zeroext %73, i32 noundef %74, i32 noundef %76, i32 noundef %81)
  %82 = call i32 @tvb_captured_length(ptr noundef %0)
  call void @llvm.lifetime.end.p0(i64 4, ptr nonnull %7) #6
  ret i32 %82
}